; Function Attrs: mustprogress uwtable
define dso_local void @_ZN32btConvexInternalAabbCachingShapeC2Ev(ptr noundef nonnull align 8 dereferenceable(105) %0) unnamed_addr #0 align 2 personality ptr @__gxx_personality_v0 {
  tail call void @_ZN13btConvexShapeC2Ev(ptr noundef nonnull align 8 dereferenceable(72) %0)
  %2 = getelementptr inbounds nuw i8, ptr %0, i64 32
  store float 1.000000e+00, ptr %2, align 8, !tbaa !7
  %3 = getelementptr inbounds nuw i8, ptr %0, i64 36
  store float 1.000000e+00, ptr %3, align 4, !tbaa !7
  %4 = getelementptr inbounds nuw i8, ptr %0, i64 40
  store float 1.000000e+00, ptr %4, align 8, !tbaa !7
  %5 = getelementptr inbounds nuw i8, ptr %0, i64 44
  store float 0.000000e+00, ptr %5, align 4, !tbaa !7
  %6 = getelementptr inbounds nuw i8, ptr %0, i64 64
  store float 0x3FA47AE140000000, ptr %6, align 8, !tbaa !10
  store ptr getelementptr inbounds nuw inrange(-16, 184) (i8, ptr @_ZTV32btConvexInternalAabbCachingShape, i64 16), ptr %0, align 8, !tbaa !4
  %7 = getelementptr inbounds nuw i8, ptr %0, i64 72
  store float 1.000000e+00, ptr %7, align 8, !tbaa !7
  %8 = getelementptr inbounds nuw i8, ptr %0, i64 76
  store float 1.000000e+00, ptr %8, align 4, !tbaa !7
  %9 = getelementptr inbounds nuw i8, ptr %0, i64 80
  store float 1.000000e+00, ptr %9, align 8, !tbaa !7
  %10 = getelementptr inbounds nuw i8, ptr %0, i64 84
  store float 0.000000e+00, ptr %10, align 4, !tbaa !7
  %11 = getelementptr inbounds nuw i8, ptr %0, i64 88
  store float -1.000000e+00, ptr %11, align 8, !tbaa !7
  %12 = getelementptr inbounds nuw i8, ptr %0, i64 92
  store float -1.000000e+00, ptr %12, align 4, !tbaa !7
  %13 = getelementptr inbounds nuw i8, ptr %0, i64 96
  store float -1.000000e+00, ptr %13, align 8, !tbaa !7
  %14 = getelementptr inbounds nuw i8, ptr %0, i64 100
  store float 0.000000e+00, ptr %14, align 4, !tbaa !7
  %15 = getelementptr inbounds nuw i8, ptr %0, i64 104
  store i8 0, ptr %15, align 8, !tbaa !20
  ret void
}